; Function Attrs: mustprogress uwtable
define hidden void @_ZN3smt12model_finder19process_hint_macrosER10ptr_vectorI10quantifierES4_P11proto_model(ptr noundef nonnull align 8 dereferenceable(128) %this, ptr noundef nonnull align 8 dereferenceable(8) %qs, ptr noundef nonnull align 8 dereferenceable(8) %residue, ptr noundef %mdl) local_unnamed_addr #3 align 2 personality ptr @__gxx_personality_v0 {
entry:
  %hms = alloca %class.hint_macro_solver, align 8
  %m = getelementptr inbounds i8, ptr %this, i64 8
  %0 = load ptr, ptr %m, align 8
  call void @_ZN17hint_macro_solverC2ER11ast_managerR22quantifier2macro_infos(ptr noundef nonnull align 8 dereferenceable(328) %hms, ptr noundef nonnull align 8 dereferenceable(976) %0, ptr noundef nonnull align 8 dereferenceable(8) %this)
  invoke void @_ZN17base_macro_solverclER10model_coreR10ptr_vectorI10quantifierES5_(ptr noundef nonnull align 8 dereferenceable(32) %hms, ptr noundef nonnull align 8 dereferenceable(96) %mdl, ptr noundef nonnull align 8 dereferenceable(8) %qs, ptr noundef nonnull align 8 dereferenceable(8) %residue)
          to label %invoke.cont unwind label %lpad

invoke.cont:                                      ; preds = %entry
  call void @_ZN17hint_macro_solverD2Ev(ptr noundef nonnull align 8 dereferenceable(328) %hms) #21
  ret void

lpad:                                             ; preds = %entry
  %1 = landingpad { ptr, i32 }
          cleanup
  call void @_ZN17hint_macro_solverD2Ev(ptr noundef nonnull align 8 dereferenceable(328) %hms) #21
  resume { ptr, i32 } %1
}